; Function Attrs: mustprogress uwtable
define hidden noundef i32 @_ZN5zxing11UnicomBlock18GetUnicomBlockSizeEii(ptr noundef nonnull align 8 captures(none) dereferenceable(160) %0, i32 noundef %1, i32 noundef %2) local_unnamed_addr #3 align 2 {
  %4 = getelementptr inbounds nuw i8, ptr %0, i64 12
  %5 = load i32, ptr %4, align 4, !tbaa !10
  %.not = icmp slt i32 %1, %5
  br i1 %.not, label %6, label %31

6:                                                ; preds = %3
  %7 = getelementptr inbounds nuw i8, ptr %0, i64 16
  %8 = load i32, ptr %7, align 8, !tbaa !25
  %.not14 = icmp slt i32 %2, %8
  br i1 %.not14, label %9, label %31

9:                                                ; preds = %6
  %10 = getelementptr inbounds nuw i8, ptr %0, i64 32
  %11 = mul nsw i32 %8, %1
  %12 = add nsw i32 %11, %2
  %13 = sext i32 %12 to i64
  %14 = load ptr, ptr %10, align 8, !tbaa !29
  %15 = getelementptr inbounds nuw i32, ptr %14, i64 %13
  %16 = load i32, ptr %15, align 4, !tbaa !32
  %.not15 = icmp eq i32 %16, 0
  br i1 %.not15, label %22, label %17

17:                                               ; preds = %9
  %18 = getelementptr inbounds nuw i8, ptr %0, i64 56
  %19 = load ptr, ptr %18, align 8, !tbaa !29
  %20 = getelementptr inbounds nuw i32, ptr %19, i64 %13
  %21 = load i32, ptr %20, align 4, !tbaa !32
  br label %31

22:                                               ; preds = %9
  tail call void @_ZN5zxing11UnicomBlock3BfsEii(ptr noundef nonnull align 8 dereferenceable(160) %0, i32 noundef %1, i32 noundef %2)
  %23 = getelementptr inbounds nuw i8, ptr %0, i64 56
  %24 = load i32, ptr %7, align 8, !tbaa !25
  %25 = mul nsw i32 %24, %1
  %26 = add nsw i32 %25, %2
  %27 = sext i32 %26 to i64
  %28 = load ptr, ptr %23, align 8, !tbaa !29
  %29 = getelementptr inbounds nuw i32, ptr %28, i64 %27
  %30 = load i32, ptr %29, align 4, !tbaa !32
  br label %31

31:                                               ; preds = %3, %6, %22, %17
  %.0 = phi i32 [ %21, %17 ], [ %30, %22 ], [ 0, %6 ], [ 0, %3 ]
  ret i32 %.0
}